; Function Attrs: null_pointer_is_valid sspstrong uwtable
define ptr @rel_oid_encoded2string(ptr noundef %0, ptr noundef readonly captures(none) %1, i32 noundef %2) local_unnamed_addr #0 {
  %4 = icmp sgt i32 %2, 0
  br i1 %4, label %.lr.ph.preheader.i, label %._crit_edge.i

.lr.ph.preheader.i:                               ; preds = %3
  %wide.trip.count.i = zext nneg i32 %2 to i64
  br label %.lr.ph.i

.lr.ph.i:                                         ; preds = %.lr.ph.i, %.lr.ph.preheader.i
  %indvars.iv.i = phi i64 [ 0, %.lr.ph.preheader.i ], [ %indvars.iv.next.i, %.lr.ph.i ]
  %.06484.i = phi i32 [ 0, %.lr.ph.preheader.i ], [ %spec.select.i, %.lr.ph.i ]
  %5 = getelementptr i8, ptr %1, i64 %indvars.iv.i
  %6 = load i8, ptr %5, align 1
  %.not7282.i = icmp sgt i8 %6, -1
  %7 = zext i1 %.not7282.i to i32
  %spec.select.i = add i32 %.06484.i, %7
  %indvars.iv.next.i = add nuw nsw i64 %indvars.iv.i, 1
  %exitcond.not.i = icmp eq i64 %indvars.iv.next.i, %wide.trip.count.i
  br i1 %exitcond.not.i, label %._crit_edge.i, label %.lr.ph.i, !llvm.loop !13

._crit_edge.i:                                    ; preds = %.lr.ph.i, %3
  %.064.lcssa.i = phi i32 [ 0, %3 ], [ %spec.select.i, %.lr.ph.i ]
  %8 = zext i32 %.064.lcssa.i to i64
  %9 = shl nuw nsw i64 %8, 2
  %10 = tail call noalias ptr @wmem_alloc(ptr noundef null, i64 noundef %9) #8
  %11 = getelementptr i32, ptr %10, i64 %8
  %12 = icmp ne i32 %.064.lcssa.i, 0
  %brmerge.not.i = and i1 %4, %12
  br i1 %brmerge.not.i, label %.lr.ph89.preheader.i, label %oid_encoded2subid_sub.exit

.lr.ph89.preheader.i:                             ; preds = %._crit_edge.i
  %wide.trip.count93.i = zext nneg i32 %2 to i64
  br label %.lr.ph89.i

.lr.ph89.i:                                       ; preds = %25, %.lr.ph89.preheader.i
  %indvars.iv91.i = phi i64 [ 0, %.lr.ph89.preheader.i ], [ %indvars.iv.next92.i, %25 ]
  %.05588.i = phi i64 [ 0, %.lr.ph89.preheader.i ], [ %.156.ph.i, %25 ]
  %.06186.i = phi ptr [ %10, %.lr.ph89.preheader.i ], [ %.162.ph.i, %25 ]
  %13 = getelementptr i8, ptr %1, i64 %indvars.iv91.i
  %14 = load i8, ptr %13, align 1
  %15 = shl i64 %.05588.i, 7
  %16 = and i8 %14, 127
  %17 = zext nneg i8 %16 to i64
  %18 = or disjoint i64 %15, %17
  %.not.i = icmp sgt i8 %14, -1
  br i1 %.not.i, label %19, label %25

19:                                               ; preds = %.lr.ph89.i
  %20 = icmp uge ptr %.06186.i, %11
  %21 = icmp ugt i64 %15, 4294967295
  %or.cond5.i = select i1 %20, i1 true, i1 %21
  br i1 %or.cond5.i, label %oid_encoded2subid_sub.exit.thread, label %22

22:                                               ; preds = %19
  %23 = trunc nuw i64 %18 to i32
  %24 = getelementptr i8, ptr %.06186.i, i64 4
  store i32 %23, ptr %.06186.i, align 4
  br label %25

oid_encoded2subid_sub.exit.thread:                ; preds = %19
  tail call void @wmem_free(ptr noundef null, ptr noundef %10)
  br label %28

25:                                               ; preds = %22, %.lr.ph89.i
  %.162.ph.i = phi ptr [ %.06186.i, %.lr.ph89.i ], [ %24, %22 ]
  %.156.ph.i = phi i64 [ %18, %.lr.ph89.i ], [ 0, %22 ]
  %indvars.iv.next92.i = add nuw nsw i64 %indvars.iv91.i, 1
  %exitcond94.not.i = icmp eq i64 %indvars.iv.next92.i, %wide.trip.count93.i
  br i1 %exitcond94.not.i, label %oid_encoded2subid_sub.exit, label %.lr.ph89.i, !llvm.loop !14

oid_encoded2subid_sub.exit:                       ; preds = %25, %._crit_edge.i
  %.not = icmp eq i32 %.064.lcssa.i, 0
  br i1 %.not, label %28, label %26

26:                                               ; preds = %oid_encoded2subid_sub.exit
  %27 = tail call ptr @rel_oid_subid2string(ptr noundef %0, ptr noundef %10, i32 noundef %.064.lcssa.i, i1 noundef zeroext false)
  br label %30

28:                                               ; preds = %oid_encoded2subid_sub.exit.thread, %oid_encoded2subid_sub.exit
  %.0914 = phi ptr [ null, %oid_encoded2subid_sub.exit.thread ], [ %10, %oid_encoded2subid_sub.exit ]
  %29 = tail call noalias ptr @wmem_strdup(ptr noundef %0, ptr noundef nonnull @.str.17)
  br label %30

30:                                               ; preds = %28, %26
  %.0913 = phi ptr [ %10, %26 ], [ %.0914, %28 ]
  %.0 = phi ptr [ %27, %26 ], [ %29, %28 ]
  tail call void @wmem_free(ptr noundef null, ptr noundef %.0913)
  ret ptr %.0
}